; Function Attrs: nounwind uwtable
define internal fastcc void @mstate(ptr noundef %0, i32 noundef range(i32 0, 18) %1) unnamed_addr #0 {
  %3 = getelementptr inbounds nuw i8, ptr %0, i64 96
  %4 = load i32, ptr %3, align 8, !tbaa !98
  %5 = icmp eq i32 %4, %1
  br i1 %5, label %38, label %6

6:                                                ; preds = %2
  store i32 %1, ptr %3, align 8, !tbaa !98
  %7 = icmp eq i32 %1, 16
  br i1 %7, label %8, label %31

8:                                                ; preds = %6
  %9 = getelementptr inbounds nuw i8, ptr %0, i64 208
  %10 = load ptr, ptr %9, align 8, !tbaa !92
  %11 = getelementptr inbounds nuw i8, ptr %10, i64 8
  %12 = load i32, ptr %11, align 8, !tbaa !93
  %13 = add i32 %12, -1
  store i32 %13, ptr %11, align 8, !tbaa !93
  %.not = icmp eq i32 %13, 0
  br i1 %.not, label %14, label %31

14:                                               ; preds = %8
  %15 = load ptr, ptr @Curl_cfree, align 8, !tbaa !3
  %16 = getelementptr inbounds nuw i8, ptr %10, i64 272
  %17 = load ptr, ptr %16, align 8, !tbaa !111
  tail call void %15(ptr noundef %17) #19
  %18 = getelementptr inbounds nuw i8, ptr %10, i64 649
  tail call void @llvm.memset.p0.i64(ptr noundef nonnull align 8 dereferenceable(16) %16, i8 0, i64 16, i1 false)
  %19 = load i8, ptr %18, align 1
  %20 = and i8 %19, -33
  store i8 %20, ptr %18, align 1
  %21 = load ptr, ptr @Curl_cfree, align 8, !tbaa !3
  %22 = getelementptr inbounds nuw i8, ptr %10, i64 288
  %23 = load ptr, ptr %22, align 8, !tbaa !112
  tail call void %21(ptr noundef %23) #19
  tail call void @llvm.memset.p0.i64(ptr noundef nonnull align 8 dereferenceable(16) %22, i8 0, i64 16, i1 false)
  %24 = load i8, ptr %18, align 1
  %25 = and i8 %24, -65
  store i8 %25, ptr %18, align 1
  %26 = load ptr, ptr @Curl_cfree, align 8, !tbaa !3
  %27 = getelementptr inbounds nuw i8, ptr %10, i64 304
  %28 = load ptr, ptr %27, align 8, !tbaa !113
  tail call void %26(ptr noundef %28) #19
  tail call void @llvm.memset.p0.i64(ptr noundef nonnull align 8 dereferenceable(16) %27, i8 0, i64 16, i1 false)
  %29 = load i8, ptr %18, align 1
  %30 = and i8 %29, 127
  store i8 %30, ptr %18, align 1
  br label %31

31:                                               ; preds = %8, %14, %6
  %32 = zext nneg i32 %1 to i64
  %33 = shl nuw nsw i64 1, %32
  %34 = and i64 %33, 192503
  %.not12.not = icmp eq i64 %34, 0
  br i1 %.not12.not, label %35, label %38

35:                                               ; preds = %31
  %36 = getelementptr inbounds nuw [18 x ptr], ptr @mstate.finit, i64 0, i64 %32
  %37 = load ptr, ptr %36, align 8, !tbaa !3
  tail call void %37(ptr noundef nonnull %0) #19
  br label %38

38:                                               ; preds = %31, %35, %2
  ret void
}